ccopy_reg
_reconstructor
p0
(cnetworkx.classes.graph
Graph
p1
c__builtin__
object
p2
Ntp3
Rp4
(dp5
S'node'
p6
(dp7
I1
(dp8
sI2
(dp9
sI3
(dp10
sI4
(dp11
sI6
(dp12
sI7
(dp13
sI8
(dp14
sI9
(dp15
sI10
(dp16
sI11
(dp17
sI19
(dp18
sI21
(dp19
sI23
(dp20
sI24
(dp21
sI25
(dp22
sI26
(dp23
sI27
(dp24
sI28
(dp25
sI30
(dp26
sI31
(dp27
sI32
(dp28
sI33
(dp29
sI42
(dp30
sI44
(dp31
sI46
(dp32
ssS'graph'
p33
(dp34
S'name'
p35
S'()'
p36
ssS'edge'
p37
(dp38
I1
(dp39
I2
(dp40
sI4
(dp41
sI6
(dp42
sI7
(dp43
sI9
(dp44
sI10
(dp45
sI11
(dp46
sI44
(dp47
sI19
(dp48
sI25
(dp49
sI27
(dp50
sI28
(dp51
sI42
(dp52
ssI2
(dp53
cnumpy.core.multiarray
scalar
p54
(cnumpy
dtype
p55
(S'i8'
p56
I0
I1
tp57
Rp58
(I3
S'<'
p59
NNNI-1
I-1
I0
tp60
bS'\x01\x00\x00\x00\x00\x00\x00\x00'
p61
tp62
Rp63
g40
sI3
(dp64
sI4
(dp65
sI6
(dp66
sI7
(dp67
sI9
(dp68
sI42
(dp69
sI11
(dp70
sI44
(dp71
sI19
(dp72
sI24
(dp73
sI25
(dp74
sI26
(dp75
sI27
(dp76
sI28
(dp77
ssI3
(dp78
I33
(dp79
sg54
(g58
S'\x02\x00\x00\x00\x00\x00\x00\x00'
p80
tp81
Rp82
g64
sI6
(dp83
sI7
(dp84
sI9
(dp85
sI10
(dp86
sI11
(dp87
sI46
(dp88
sI19
(dp89
sI23
(dp90
sI24
(dp91
sI25
(dp92
sI26
(dp93
sI42
(dp94
ssI4
(dp95
g63
g41
sg82
g65
sI6
(dp96
sI7
(dp97
sI9
(dp98
sI10
(dp99
sI11
(dp100
sI44
(dp101
sI25
(dp102
sI27
(dp103
sI28
(dp104
sI42
(dp105
ssI6
(dp106
g63
g42
sg82
g66
sg54
(g58
S'\x03\x00\x00\x00\x00\x00\x00\x00'
p107
tp108
Rp109
g83
sg54
(g58
S'\x04\x00\x00\x00\x00\x00\x00\x00'
p110
tp111
Rp112
g96
sI7
(dp113
sI9
(dp114
sI10
(dp115
sI11
(dp116
sI44
(dp117
sI19
(dp118
sI23
(dp119
sI24
(dp120
sI25
(dp121
sI27
(dp122
sI28
(dp123
sI42
(dp124
sI31
(dp125
ssI7
(dp126
g63
g43
sg82
g67
sg109
g84
sg112
g97
sg54
(g58
S'\x06\x00\x00\x00\x00\x00\x00\x00'
p127
tp128
Rp129
g113
sI9
(dp130
sI10
(dp131
sI11
(dp132
sI44
(dp133
sI19
(dp134
sI23
(dp135
sI24
(dp136
sI25
(dp137
sI26
(dp138
sI28
(dp139
sI30
(dp140
ssI8
(dp141
I42
(dp142
ssI9
(dp143
g63
g44
sg82
g68
sg109
g85
sg112
g98
sg129
g114
sg54
(g58
S'\x07\x00\x00\x00\x00\x00\x00\x00'
p144
tp145
Rp146
g130
sI10
(dp147
sI11
(dp148
sI44
(dp149
sI19
(dp150
sI21
(dp151
sI23
(dp152
sI24
(dp153
sI25
(dp154
sI26
(dp155
sI27
(dp156
sI28
(dp157
sI42
(dp158
sI30
(dp159
sI31
(dp160
ssI10
(dp161
g63
g45
sg109
g86
sg112
g99
sg129
g115
sg146
g131
sg54
(g58
S'\t\x00\x00\x00\x00\x00\x00\x00'
p162
tp163
Rp164
g147
sI11
(dp165
sI44
(dp166
sI19
(dp167
sI23
(dp168
sI24
(dp169
sI25
(dp170
sI26
(dp171
sI27
(dp172
sI28
(dp173
ssI11
(dp174
g63
g46
sg82
g70
sg109
g87
sg112
g100
sg129
g116
sg146
g132
sg164
g148
sg54
(g58
S'\n\x00\x00\x00\x00\x00\x00\x00'
p175
tp176
Rp177
g165
sI44
(dp178
sI19
(dp179
sI25
(dp180
sI26
(dp181
sI27
(dp182
sI28
(dp183
sI42
(dp184
sI30
(dp185
ssI19
(dp186
g63
g48
sg82
g72
sg109
g89
sI33
(dp187
sg129
g118
sg146
g134
sg164
g150
sg177
g167
sg54
(g58
S'\x0b\x00\x00\x00\x00\x00\x00\x00'
p188
tp189
Rp190
g179
sI44
(dp191
sI46
(dp192
sI25
(dp193
sI27
(dp194
sI28
(dp195
sI42
(dp196
ssI21
(dp197
g164
g151
sI42
(dp198
ssI23
(dp199
g109
g90
sg129
g119
sg146
g135
sg164
g152
sg177
g168
sI44
(dp200
sI25
(dp201
sI28
(dp202
ssI24
(dp203
g82
g73
sg109
g91
sg129
g120
sg146
g136
sg164
g153
sg177
g169
sI44
(dp204
sI25
(dp205
sI28
(dp206
ssI25
(dp207
g63
g49
sg82
g74
sg109
g92
sg112
g102
sg129
g121
sg146
g137
sg164
g154
sg177
g170
sg190
g180
sI44
(dp208
sg54
(g58
S'\x13\x00\x00\x00\x00\x00\x00\x00'
p209
tp210
Rp211
g193
sg54
(g58
S'\x17\x00\x00\x00\x00\x00\x00\x00'
p212
tp213
Rp214
g201
sg54
(g58
S'\x18\x00\x00\x00\x00\x00\x00\x00'
p215
tp216
Rp217
g205
sI26
(dp218
sI27
(dp219
sI28
(dp220
sI42
(dp221
ssI26
(dp222
g82
g75
sg109
g93
sg146
g138
sg164
g155
sg177
g171
sg190
g181
sI44
(dp223
sg54
(g58
S'\x19\x00\x00\x00\x00\x00\x00\x00'
p224
tp225
Rp226
g218
sI28
(dp227
ssI27
(dp228
g63
g50
sg82
g76
sg112
g103
sg129
g122
sg164
g156
sg177
g172
sg190
g182
sI44
(dp229
sg211
g194
sg226
g219
sI28
(dp230
sI42
(dp231
ssI28
(dp232
g63
g51
sg82
g77
sg112
g104
sg129
g123
sg146
g139
sg164
g157
sg177
g173
sg190
g183
sI44
(dp233
sg211
g195
sg214
g202
sg217
g206
sg226
g220
sg54
(g58
S'\x1a\x00\x00\x00\x00\x00\x00\x00'
p234
tp235
Rp236
g227
sg54
(g58
S'\x1b\x00\x00\x00\x00\x00\x00\x00'
p237
tp238
Rp239
g230
sI42
(dp240
ssI30
(dp241
g164
g159
sg190
g185
sI44
(dp242
sg146
g140
ssI31
(dp243
g164
g160
sI42
(dp244
sg129
g125
ssI32
(dp245
I42
(dp246
ssI33
(dp247
g109
g79
sg211
g187
ssI42
(dp248
g54
(g58
S' \x00\x00\x00\x00\x00\x00\x00'
p249
tp250
Rp251
g246
sg63
g52
sg82
g69
sg109
g94
sg112
g105
sg129
g124
sg54
(g58
S'\x08\x00\x00\x00\x00\x00\x00\x00'
p252
tp253
Rp254
g142
sg164
g158
sg190
g184
sI44
(dp255
sg211
g196
sg54
(g58
S'\x15\x00\x00\x00\x00\x00\x00\x00'
p256
tp257
Rp258
g198
sg226
g221
sg239
g231
sg54
(g58
S'\x1c\x00\x00\x00\x00\x00\x00\x00'
p259
tp260
Rp261
g240
sg54
(g58
S'\x1f\x00\x00\x00\x00\x00\x00\x00'
p262
tp263
Rp264
g244
ssI44
(dp265
g63
g47
sg82
g71
sg112
g101
sg129
g117
sg146
g133
sg164
g149
sg177
g166
sg190
g178
sg211
g191
sg214
g200
sg217
g204
sg226
g208
sg236
g223
sg239
g229
sg261
g233
sg54
(g58
S'*\x00\x00\x00\x00\x00\x00\x00'
p266
tp267
Rp268
g255
sg54
(g58
S'\x1e\x00\x00\x00\x00\x00\x00\x00'
p269
tp270
Rp271
g242
ssI46
(dp272
g109
g88
sg211
g192
sssS'adj'
p273
g38
sb.